target datalayout = "e-m:e-p270:32:32-p271:32:32-p272:64:64-i64:64-i128:128-f80:128-n8:16:32:64-S128"
target triple = "x86_64-pc-linux-gnu"

%"class.pybind11::object" = type { %"class.pybind11::handle" }
%"class.pybind11::handle" = type { ptr }
%"class.pybind11::class_" = type { %"class.pybind11::detail::generic_type" }
%"class.pybind11::detail::generic_type" = type { %"class.pybind11::object" }
%"class.pybind11::class_.35" = type { %"class.pybind11::detail::generic_type" }
%"class.pybind11::class_.36" = type { %"class.pybind11::detail::generic_type" }
%"class.pybind11::class_.37" = type { %"class.pybind11::detail::generic_type" }
%"class.pybind11::class_.38" = type { %"class.pybind11::detail::generic_type" }

@.str.32 = private unnamed_addr constant [11 x i8] c"Visualizer\00", align 1
@.str.33 = private unnamed_addr constant [27 x i8] c"The main Visualizer class.\00", align 1
@.str.34 = private unnamed_addr constant [26 x i8] c"VisualizerWithKeyCallback\00", align 1
@.str.35 = private unnamed_addr constant [50 x i8] c"Visualizer with custom key callback capabilities.\00", align 1
@.str.36 = private unnamed_addr constant [22 x i8] c"VisualizerWithEditing\00", align 1
@.str.37 = private unnamed_addr constant [38 x i8] c"Visualizer with editing capabilities.\00", align 1
@.str.38 = private unnamed_addr constant [30 x i8] c"VisualizerWithVertexSelection\00", align 1
@.str.39 = private unnamed_addr constant [47 x i8] c"Visualizer with vertex selection capabilities.\00", align 1
@.str.40 = private unnamed_addr constant [12 x i8] c"PickedPoint\00", align 1

; Function Attrs: mustprogress ssp uwtable
define hidden void @_ZN6open3d13visualization30pybind_visualizer_declarationsERN8pybind117module_E(ptr noundef nonnull align 8 dereferenceable(8) %0) #3 personality ptr @__gxx_personality_v0 {
  %2 = alloca ptr, align 8
  %3 = alloca %"class.pybind11::class_", align 8
  %4 = alloca %"class.pybind11::handle", align 8
  %5 = alloca %"class.pybind11::class_.35", align 8
  %6 = alloca %"class.pybind11::handle", align 8
  %7 = alloca ptr, align 8
  %8 = alloca i32, align 4
  %9 = alloca %"class.pybind11::class_.36", align 8
  %10 = alloca %"class.pybind11::handle", align 8
  %11 = alloca %"class.pybind11::class_.37", align 8
  %12 = alloca %"class.pybind11::handle", align 8
  %13 = alloca %"class.pybind11::class_.38", align 8
  %14 = alloca %"class.pybind11::handle", align 8
  store ptr %0, ptr %2, align 8, !tbaa !306
  call void @llvm.lifetime.start.p0(i64 8, ptr %3) #7
  %15 = load ptr, ptr %2, align 8, !tbaa !306
  call void @llvm.memcpy.p0.p0.i64(ptr align 8 %4, ptr align 8 %15, i64 8, i1 false)
  %16 = getelementptr inbounds nuw %"class.pybind11::handle", ptr %4, i32 0, i32 0
  %17 = load ptr, ptr %16, align 8
  call void @_ZN8pybind116class_IN6open3d13visualization10VisualizerEJNS2_12PyVisualizerIS3_EESt10shared_ptrIS3_EEEC2IJA27_cEEENS_6handleEPKcDpRKT_(ptr noundef nonnull align 8 dereferenceable(8) %3, ptr %17, ptr noundef @.str.32, ptr noundef nonnull align 1 dereferenceable(27) @.str.33)
  call void @llvm.lifetime.start.p0(i64 8, ptr %5) #7
  %18 = load ptr, ptr %2, align 8, !tbaa !306
  call void @llvm.memcpy.p0.p0.i64(ptr align 8 %6, ptr align 8 %18, i64 8, i1 false)
  %19 = getelementptr inbounds nuw %"class.pybind11::handle", ptr %6, i32 0, i32 0
  %20 = load ptr, ptr %19, align 8
  invoke void @_ZN8pybind116class_IN6open3d13visualization25VisualizerWithKeyCallbackEJNS2_12PyVisualizerIS3_EESt10shared_ptrIS3_EEEC2IJNS0_INS2_10VisualizerEJNS4_ISA_EES6_ISA_EEEEA50_cEEENS_6handleEPKcDpRKT_(ptr noundef nonnull align 8 dereferenceable(8) %5, ptr %20, ptr noundef @.str.34, ptr noundef nonnull align 8 dereferenceable(8) %3, ptr noundef nonnull align 1 dereferenceable(50) @.str.35)
          to label %21 unwind label %34

21:                                               ; preds = %1
  call void @llvm.lifetime.start.p0(i64 8, ptr %9) #7
  %22 = load ptr, ptr %2, align 8, !tbaa !306
  call void @llvm.memcpy.p0.p0.i64(ptr align 8 %10, ptr align 8 %22, i64 8, i1 false)
  %23 = getelementptr inbounds nuw %"class.pybind11::handle", ptr %10, i32 0, i32 0
  %24 = load ptr, ptr %23, align 8
  invoke void @_ZN8pybind116class_IN6open3d13visualization21VisualizerWithEditingEJNS2_12PyVisualizerIS3_EESt10shared_ptrIS3_EEEC2IJNS0_INS2_10VisualizerEJNS4_ISA_EES6_ISA_EEEEA38_cEEENS_6handleEPKcDpRKT_(ptr noundef nonnull align 8 dereferenceable(8) %9, ptr %24, ptr noundef @.str.36, ptr noundef nonnull align 8 dereferenceable(8) %3, ptr noundef nonnull align 1 dereferenceable(38) @.str.37)
          to label %25 unwind label %38

25:                                               ; preds = %21
  call void @llvm.lifetime.start.p0(i64 8, ptr %11) #7
  %26 = load ptr, ptr %2, align 8, !tbaa !306
  call void @llvm.memcpy.p0.p0.i64(ptr align 8 %12, ptr align 8 %26, i64 8, i1 false)
  %27 = getelementptr inbounds nuw %"class.pybind11::handle", ptr %12, i32 0, i32 0
  %28 = load ptr, ptr %27, align 8
  invoke void @_ZN8pybind116class_IN6open3d13visualization29VisualizerWithVertexSelectionEJNS2_12PyVisualizerIS3_EESt10shared_ptrIS3_EEEC2IJNS0_INS2_10VisualizerEJNS4_ISA_EES6_ISA_EEEEA47_cEEENS_6handleEPKcDpRKT_(ptr noundef nonnull align 8 dereferenceable(8) %11, ptr %28, ptr noundef @.str.38, ptr noundef nonnull align 8 dereferenceable(8) %3, ptr noundef nonnull align 1 dereferenceable(47) @.str.39)
          to label %29 unwind label %42

29:                                               ; preds = %25
  call void @llvm.lifetime.start.p0(i64 8, ptr %13) #7
  %30 = load ptr, ptr %2, align 8, !tbaa !306
  call void @llvm.memcpy.p0.p0.i64(ptr align 8 %14, ptr align 8 %30, i64 8, i1 false)
  %31 = getelementptr inbounds nuw %"class.pybind11::handle", ptr %14, i32 0, i32 0
  %32 = load ptr, ptr %31, align 8
  invoke void @_ZN8pybind116class_IN6open3d13visualization29VisualizerWithVertexSelection11PickedPointEJEEC2IJEEENS_6handleEPKcDpRKT_(ptr noundef nonnull align 8 dereferenceable(8) %13, ptr %32, ptr noundef @.str.40)
          to label %33 unwind label %46

33:                                               ; preds = %29
  call void @_ZN8pybind116objectD2Ev(ptr noundef nonnull align 8 dereferenceable(8) %13) #7
  call void @llvm.lifetime.end.p0(i64 8, ptr %13) #7
  call void @_ZN8pybind116objectD2Ev(ptr noundef nonnull align 8 dereferenceable(8) %11) #7
  call void @llvm.lifetime.end.p0(i64 8, ptr %11) #7
  call void @_ZN8pybind116objectD2Ev(ptr noundef nonnull align 8 dereferenceable(8) %9) #7
  call void @llvm.lifetime.end.p0(i64 8, ptr %9) #7
  call void @_ZN8pybind116objectD2Ev(ptr noundef nonnull align 8 dereferenceable(8) %5) #7
  call void @llvm.lifetime.end.p0(i64 8, ptr %5) #7
  call void @_ZN8pybind116objectD2Ev(ptr noundef nonnull align 8 dereferenceable(8) %3) #7
  call void @llvm.lifetime.end.p0(i64 8, ptr %3) #7
  ret void

34:                                               ; preds = %1
  %35 = landingpad { ptr, i32 }
          cleanup
  %36 = extractvalue { ptr, i32 } %35, 0
  store ptr %36, ptr %7, align 8
  %37 = extractvalue { ptr, i32 } %35, 1
  store i32 %37, ptr %8, align 4
  br label %52

38:                                               ; preds = %21
  %39 = landingpad { ptr, i32 }
          cleanup
  %40 = extractvalue { ptr, i32 } %39, 0
  store ptr %40, ptr %7, align 8
  %41 = extractvalue { ptr, i32 } %39, 1
  store i32 %41, ptr %8, align 4
  br label %51

42:                                               ; preds = %25
  %43 = landingpad { ptr, i32 }
          cleanup
  %44 = extractvalue { ptr, i32 } %43, 0
  store ptr %44, ptr %7, align 8
  %45 = extractvalue { ptr, i32 } %43, 1
  store i32 %45, ptr %8, align 4
  br label %50

46:                                               ; preds = %29
  %47 = landingpad { ptr, i32 }
          cleanup
  %48 = extractvalue { ptr, i32 } %47, 0
  store ptr %48, ptr %7, align 8
  %49 = extractvalue { ptr, i32 } %47, 1
  store i32 %49, ptr %8, align 4
  call void @llvm.lifetime.end.p0(i64 8, ptr %13) #7
  call void @_ZN8pybind116objectD2Ev(ptr noundef nonnull align 8 dereferenceable(8) %11) #7
  br label %50

50:                                               ; preds = %46, %42
  call void @llvm.lifetime.end.p0(i64 8, ptr %11) #7
  call void @_ZN8pybind116objectD2Ev(ptr noundef nonnull align 8 dereferenceable(8) %9) #7
  br label %51

51:                                               ; preds = %50, %38
  call void @llvm.lifetime.end.p0(i64 8, ptr %9) #7
  call void @_ZN8pybind116objectD2Ev(ptr noundef nonnull align 8 dereferenceable(8) %5) #7
  br label %52

52:                                               ; preds = %51, %34
  call void @llvm.lifetime.end.p0(i64 8, ptr %5) #7
  call void @_ZN8pybind116objectD2Ev(ptr noundef nonnull align 8 dereferenceable(8) %3) #7
  call void @llvm.lifetime.end.p0(i64 8, ptr %3) #7
  br label %53

53:                                               ; preds = %52
  %54 = load ptr, ptr %7, align 8
  %55 = load i32, ptr %8, align 4
  %56 = insertvalue { ptr, i32 } poison, ptr %54, 0
  %57 = insertvalue { ptr, i32 } %56, i32 %55, 1
  resume { ptr, i32 } %57
}