; Function Attrs: mustprogress ssp uwtable
define hidden void @_ZN6open3d13visualization30pybind_visualizer_declarationsERN8pybind117module_E(ptr noundef nonnull readonly align 8 captures(none) dereferenceable(8) %0) local_unnamed_addr #7 personality ptr @__gxx_personality_v0 {
  %2 = alloca %"class.pybind11::class_", align 8
  %3 = alloca %"class.pybind11::class_.35", align 8
  %4 = alloca %"class.pybind11::class_.36", align 8
  %5 = alloca %"class.pybind11::class_.37", align 8
  %6 = alloca %"class.pybind11::class_.38", align 8
  call void @llvm.lifetime.start.p0(i64 8, ptr nonnull %2) #35
  %.sroa.04.0.copyload = load ptr, ptr %0, align 8
  call void @_ZN8pybind116class_IN6open3d13visualization10VisualizerEJNS2_12PyVisualizerIS3_EESt10shared_ptrIS3_EEEC2IJA27_cEEENS_6handleEPKcDpRKT_(ptr noundef nonnull align 8 dereferenceable(8) %2, ptr %.sroa.04.0.copyload, ptr noundef nonnull @.str.32, ptr noundef nonnull align 1 dereferenceable(27) @.str.33)
  call void @llvm.lifetime.start.p0(i64 8, ptr nonnull %3) #35
  %.sroa.03.0.copyload = load ptr, ptr %0, align 8
  invoke void @_ZN8pybind116class_IN6open3d13visualization25VisualizerWithKeyCallbackEJNS2_12PyVisualizerIS3_EESt10shared_ptrIS3_EEEC2IJNS0_INS2_10VisualizerEJNS4_ISA_EES6_ISA_EEEEA50_cEEENS_6handleEPKcDpRKT_(ptr noundef nonnull align 8 dereferenceable(8) %3, ptr %.sroa.03.0.copyload, ptr noundef nonnull @.str.34, ptr noundef nonnull align 8 dereferenceable(8) %2, ptr noundef nonnull align 1 dereferenceable(50) @.str.35)
          to label %7 unwind label %66

7:                                                ; preds = %1
  call void @llvm.lifetime.start.p0(i64 8, ptr nonnull %4) #35
  %.sroa.02.0.copyload = load ptr, ptr %0, align 8
  invoke void @_ZN8pybind116class_IN6open3d13visualization21VisualizerWithEditingEJNS2_12PyVisualizerIS3_EESt10shared_ptrIS3_EEEC2IJNS0_INS2_10VisualizerEJNS4_ISA_EES6_ISA_EEEEA38_cEEENS_6handleEPKcDpRKT_(ptr noundef nonnull align 8 dereferenceable(8) %4, ptr %.sroa.02.0.copyload, ptr noundef nonnull @.str.36, ptr noundef nonnull align 8 dereferenceable(8) %2, ptr noundef nonnull align 1 dereferenceable(38) @.str.37)
          to label %8 unwind label %68

8:                                                ; preds = %7
  call void @llvm.lifetime.start.p0(i64 8, ptr nonnull %5) #35
  %.sroa.01.0.copyload = load ptr, ptr %0, align 8
  invoke void @_ZN8pybind116class_IN6open3d13visualization29VisualizerWithVertexSelectionEJNS2_12PyVisualizerIS3_EESt10shared_ptrIS3_EEEC2IJNS0_INS2_10VisualizerEJNS4_ISA_EES6_ISA_EEEEA47_cEEENS_6handleEPKcDpRKT_(ptr noundef nonnull align 8 dereferenceable(8) %5, ptr %.sroa.01.0.copyload, ptr noundef nonnull @.str.38, ptr noundef nonnull align 8 dereferenceable(8) %2, ptr noundef nonnull align 1 dereferenceable(47) @.str.39)
          to label %9 unwind label %70

9:                                                ; preds = %8
  call void @llvm.lifetime.start.p0(i64 8, ptr nonnull %6) #35
  %.sroa.0.0.copyload = load ptr, ptr %0, align 8
  invoke void @_ZN8pybind116class_IN6open3d13visualization29VisualizerWithVertexSelection11PickedPointEJEEC2IJEEENS_6handleEPKcDpRKT_(ptr noundef nonnull align 8 dereferenceable(8) %6, ptr %.sroa.0.0.copyload, ptr noundef nonnull @.str.40)
          to label %10 unwind label %72

10:                                               ; preds = %9
  %11 = load ptr, ptr %6, align 8, !tbaa !265
  %.not.i.i.i = icmp eq ptr %11, null
  br i1 %.not.i.i.i, label %_ZN8pybind116objectD2Ev.exit, label %12

12:                                               ; preds = %10
  %13 = load i64, ptr %11, align 8, !tbaa !263
  %14 = and i64 %13, 2147483648
  %.not2.i.i.i = icmp eq i64 %14, 0
  br i1 %.not2.i.i.i, label %15, label %_ZN8pybind116objectD2Ev.exit

15:                                               ; preds = %12
  %16 = add nsw i64 %13, -1
  store i64 %16, ptr %11, align 8, !tbaa !263
  %17 = icmp eq i64 %16, 0
  br i1 %17, label %18, label %_ZN8pybind116objectD2Ev.exit

18:                                               ; preds = %15
  invoke void @_Py_Dealloc(ptr noundef nonnull %11)
          to label %_ZN8pybind116objectD2Ev.exit unwind label %19

19:                                               ; preds = %18
  %20 = landingpad { ptr, i32 }
          catch ptr null
  %21 = extractvalue { ptr, i32 } %20, 0
  call void @__clang_call_terminate(ptr %21) #36
  unreachable

_ZN8pybind116objectD2Ev.exit:                     ; preds = %10, %12, %15, %18
  call void @llvm.lifetime.end.p0(i64 8, ptr nonnull %6) #35
  %22 = load ptr, ptr %5, align 8, !tbaa !265
  %.not.i.i.i16 = icmp eq ptr %22, null
  br i1 %.not.i.i.i16, label %_ZN8pybind116objectD2Ev.exit18, label %23

23:                                               ; preds = %_ZN8pybind116objectD2Ev.exit
  %24 = load i64, ptr %22, align 8, !tbaa !263
  %25 = and i64 %24, 2147483648
  %.not2.i.i.i17 = icmp eq i64 %25, 0
  br i1 %.not2.i.i.i17, label %26, label %_ZN8pybind116objectD2Ev.exit18

26:                                               ; preds = %23
  %27 = add nsw i64 %24, -1
  store i64 %27, ptr %22, align 8, !tbaa !263
  %28 = icmp eq i64 %27, 0
  br i1 %28, label %29, label %_ZN8pybind116objectD2Ev.exit18

29:                                               ; preds = %26
  invoke void @_Py_Dealloc(ptr noundef nonnull %22)
          to label %_ZN8pybind116objectD2Ev.exit18 unwind label %30

30:                                               ; preds = %29
  %31 = landingpad { ptr, i32 }
          catch ptr null
  %32 = extractvalue { ptr, i32 } %31, 0
  call void @__clang_call_terminate(ptr %32) #36
  unreachable

_ZN8pybind116objectD2Ev.exit18:                   ; preds = %_ZN8pybind116objectD2Ev.exit, %23, %26, %29
  call void @llvm.lifetime.end.p0(i64 8, ptr nonnull %5) #35
  %33 = load ptr, ptr %4, align 8, !tbaa !265
  %.not.i.i.i19 = icmp eq ptr %33, null
  br i1 %.not.i.i.i19, label %_ZN8pybind116objectD2Ev.exit21, label %34

34:                                               ; preds = %_ZN8pybind116objectD2Ev.exit18
  %35 = load i64, ptr %33, align 8, !tbaa !263
  %36 = and i64 %35, 2147483648
  %.not2.i.i.i20 = icmp eq i64 %36, 0
  br i1 %.not2.i.i.i20, label %37, label %_ZN8pybind116objectD2Ev.exit21

37:                                               ; preds = %34
  %38 = add nsw i64 %35, -1
  store i64 %38, ptr %33, align 8, !tbaa !263
  %39 = icmp eq i64 %38, 0
  br i1 %39, label %40, label %_ZN8pybind116objectD2Ev.exit21

40:                                               ; preds = %37
  invoke void @_Py_Dealloc(ptr noundef nonnull %33)
          to label %_ZN8pybind116objectD2Ev.exit21 unwind label %41

41:                                               ; preds = %40
  %42 = landingpad { ptr, i32 }
          catch ptr null
  %43 = extractvalue { ptr, i32 } %42, 0
  call void @__clang_call_terminate(ptr %43) #36
  unreachable

_ZN8pybind116objectD2Ev.exit21:                   ; preds = %_ZN8pybind116objectD2Ev.exit18, %34, %37, %40
  call void @llvm.lifetime.end.p0(i64 8, ptr nonnull %4) #35
  %44 = load ptr, ptr %3, align 8, !tbaa !265
  %.not.i.i.i22 = icmp eq ptr %44, null
  br i1 %.not.i.i.i22, label %_ZN8pybind116objectD2Ev.exit24, label %45

45:                                               ; preds = %_ZN8pybind116objectD2Ev.exit21
  %46 = load i64, ptr %44, align 8, !tbaa !263
  %47 = and i64 %46, 2147483648
  %.not2.i.i.i23 = icmp eq i64 %47, 0
  br i1 %.not2.i.i.i23, label %48, label %_ZN8pybind116objectD2Ev.exit24

48:                                               ; preds = %45
  %49 = add nsw i64 %46, -1
  store i64 %49, ptr %44, align 8, !tbaa !263
  %50 = icmp eq i64 %49, 0
  br i1 %50, label %51, label %_ZN8pybind116objectD2Ev.exit24

51:                                               ; preds = %48
  invoke void @_Py_Dealloc(ptr noundef nonnull %44)
          to label %_ZN8pybind116objectD2Ev.exit24 unwind label %52

52:                                               ; preds = %51
  %53 = landingpad { ptr, i32 }
          catch ptr null
  %54 = extractvalue { ptr, i32 } %53, 0
  call void @__clang_call_terminate(ptr %54) #36
  unreachable

_ZN8pybind116objectD2Ev.exit24:                   ; preds = %_ZN8pybind116objectD2Ev.exit21, %45, %48, %51
  call void @llvm.lifetime.end.p0(i64 8, ptr nonnull %3) #35
  %55 = load ptr, ptr %2, align 8, !tbaa !265
  %.not.i.i.i25 = icmp eq ptr %55, null
  br i1 %.not.i.i.i25, label %_ZN8pybind116objectD2Ev.exit27, label %56

56:                                               ; preds = %_ZN8pybind116objectD2Ev.exit24
  %57 = load i64, ptr %55, align 8, !tbaa !263
  %58 = and i64 %57, 2147483648
  %.not2.i.i.i26 = icmp eq i64 %58, 0
  br i1 %.not2.i.i.i26, label %59, label %_ZN8pybind116objectD2Ev.exit27

59:                                               ; preds = %56
  %60 = add nsw i64 %57, -1
  store i64 %60, ptr %55, align 8, !tbaa !263
  %61 = icmp eq i64 %60, 0
  br i1 %61, label %62, label %_ZN8pybind116objectD2Ev.exit27

62:                                               ; preds = %59
  invoke void @_Py_Dealloc(ptr noundef nonnull %55)
          to label %_ZN8pybind116objectD2Ev.exit27 unwind label %63

63:                                               ; preds = %62
  %64 = landingpad { ptr, i32 }
          catch ptr null
  %65 = extractvalue { ptr, i32 } %64, 0
  call void @__clang_call_terminate(ptr %65) #36
  unreachable

_ZN8pybind116objectD2Ev.exit27:                   ; preds = %_ZN8pybind116objectD2Ev.exit24, %56, %59, %62
  call void @llvm.lifetime.end.p0(i64 8, ptr nonnull %2) #35
  ret void

66:                                               ; preds = %1
  %67 = landingpad { ptr, i32 }
          cleanup
  br label %76

68:                                               ; preds = %7
  %69 = landingpad { ptr, i32 }
          cleanup
  br label %75

70:                                               ; preds = %8
  %71 = landingpad { ptr, i32 }
          cleanup
  br label %74

72:                                               ; preds = %9
  %73 = landingpad { ptr, i32 }
          cleanup
  call void @llvm.lifetime.end.p0(i64 8, ptr nonnull %6) #35
  call void @_ZN8pybind116objectD2Ev(ptr noundef nonnull align 8 dereferenceable(8) %5) #35
  br label %74

74:                                               ; preds = %72, %70
  %.pn = phi { ptr, i32 } [ %73, %72 ], [ %71, %70 ]
  call void @llvm.lifetime.end.p0(i64 8, ptr nonnull %5) #35
  call void @_ZN8pybind116objectD2Ev(ptr noundef nonnull align 8 dereferenceable(8) %4) #35
  br label %75

75:                                               ; preds = %74, %68
  %.pn.pn = phi { ptr, i32 } [ %.pn, %74 ], [ %69, %68 ]
  call void @llvm.lifetime.end.p0(i64 8, ptr nonnull %4) #35
  call void @_ZN8pybind116objectD2Ev(ptr noundef nonnull align 8 dereferenceable(8) %3) #35
  br label %76

76:                                               ; preds = %75, %66
  %.pn.pn.pn = phi { ptr, i32 } [ %.pn.pn, %75 ], [ %67, %66 ]
  call void @llvm.lifetime.end.p0(i64 8, ptr nonnull %3) #35
  call void @_ZN8pybind116objectD2Ev(ptr noundef nonnull align 8 dereferenceable(8) %2) #35
  call void @llvm.lifetime.end.p0(i64 8, ptr nonnull %2) #35
  resume { ptr, i32 } %.pn.pn.pn
}